target datalayout = "e-m:e-p270:32:32-p271:32:32-p272:64:64-i64:64-i128:128-f80:128-n8:16:32:64-S128"
target triple = "x86_64-pc-linux-gnu"

%struct._lv_global_t = type { i8, i8, %struct.lv_ll_t, ptr, ptr, %struct.lv_ll_t, i8, i32, i32, ptr, %struct.lv_ll_t, ptr, %struct.lv_ll_t, ptr, ptr, i32, ptr, i8, i32, i32, ptr, i32, %struct.lv_timer_state_t, %struct.lv_anim_state_t, %struct.lv_tick_state_t, %struct._lv_draw_buf_handlers_t, %struct._lv_draw_buf_handlers_t, %struct._lv_draw_buf_handlers_t, %struct.lv_ll_t, ptr, ptr, %struct.lv_draw_global_info_t, [4 x %struct.lv_draw_sw_mask_radius_circle_dsc_t], ptr, ptr, ptr, %struct.lv_tlsf_state_t, %struct.lv_ll_t, ptr, ptr, %struct.lv_style_t, i64, ptr, i32, ptr }
%struct.lv_timer_state_t = type { %struct.lv_ll_t, i8, i8, i8, i8, i32, i8, i32, i32, i32, i32, ptr, ptr }
%struct.lv_anim_state_t = type { i8, i8, ptr, %struct.lv_ll_t }
%struct.lv_tick_state_t = type { i32, i8, ptr, ptr }
%struct._lv_draw_buf_handlers_t = type { ptr, ptr, ptr, ptr, ptr, ptr }
%struct.lv_draw_global_info_t = type { ptr, i32, i32, i32, i32, i8 }
%struct.lv_draw_sw_mask_radius_circle_dsc_t = type { ptr, ptr, ptr, ptr, i32, i32, i32 }
%struct.lv_tlsf_state_t = type { ptr, i64, i64, %struct.lv_ll_t }
%struct.lv_ll_t = type { i32, ptr, ptr }
%struct.lv_style_t = type { ptr, i32, i8 }
%struct._lv_display_t = type { i32, i32, i32, i32, i32, i32, i32, ptr, ptr, ptr, ptr, ptr, i32, i32, i8, i32, i16, i32, [32 x %struct.lv_area_t], [32 x i8], i32, i32, %struct.lv_ll_t, %struct._lv_draw_buf_t, %struct._lv_draw_buf_t, ptr, ptr, ptr, ptr, ptr, ptr, ptr, ptr, ptr, ptr, i32, i8, ptr, ptr, %struct.lv_event_list_t, i8, ptr, ptr, i32, %struct.lv_area_t }
%struct._lv_draw_buf_t = type { %struct.lv_image_header_t, i32, ptr, ptr, ptr }
%struct.lv_image_header_t = type <{ i64, i32 }>
%struct.lv_event_list_t = type { %struct._lv_array_t, i8 }
%struct._lv_array_t = type { ptr, i32, i32, i32, i8 }
%struct.lv_area_t = type { i32, i32, i32, i32 }

@lv_global = external global %struct._lv_global_t, align 8

; Function Attrs: nounwind uwtable
define ptr @lv_display_get_default() #0 {
  %1 = load ptr, ptr getelementptr inbounds nuw (%struct._lv_global_t, ptr @lv_global, i32 0, i32 4), align 8, !tbaa !35
  ret ptr %1
}

; Function Attrs: nounwind uwtable
define void @lv_display_set_render_mode(ptr noundef %0, i32 noundef %1) #0 {
  %3 = alloca ptr, align 8
  %4 = alloca i32, align 4
  store ptr %0, ptr %3, align 8, !tbaa !7
  store i32 %1, ptr %4, align 4, !tbaa !3
  %5 = load ptr, ptr %3, align 8, !tbaa !7
  %6 = icmp eq ptr %5, null
  br i1 %6, label %7, label %9

7:                                                ; preds = %2
  %8 = call ptr @lv_display_get_default()
  store ptr %8, ptr %3, align 8, !tbaa !7
  br label %9

9:                                                ; preds = %7, %2
  %10 = load ptr, ptr %3, align 8, !tbaa !7
  %11 = icmp eq ptr %10, null
  br i1 %11, label %12, label %13

12:                                               ; preds = %9
  br label %17

13:                                               ; preds = %9
  %14 = load i32, ptr %4, align 4, !tbaa !3
  %15 = load ptr, ptr %3, align 8, !tbaa !7
  %16 = getelementptr inbounds nuw %struct._lv_display_t, ptr %15, i32 0, i32 15
  store i32 %14, ptr %16, align 4, !tbaa !71
  br label %17

17:                                               ; preds = %13, %12
  ret void
}

; Function Attrs: nounwind uwtable
define void @lv_display_set_draw_buffers(ptr noundef %0, ptr noundef %1, ptr noundef %2) #0 {
  %4 = alloca ptr, align 8
  %5 = alloca ptr, align 8
  %6 = alloca ptr, align 8
  store ptr %0, ptr %4, align 8, !tbaa !7
  store ptr %1, ptr %5, align 8, !tbaa !7
  store ptr %2, ptr %6, align 8, !tbaa !7
  %7 = load ptr, ptr %4, align 8, !tbaa !7
  %8 = icmp eq ptr %7, null
  br i1 %8, label %9, label %11

9:                                                ; preds = %3
  %10 = call ptr @lv_display_get_default()
  store ptr %10, ptr %4, align 8, !tbaa !7
  br label %11

11:                                               ; preds = %9, %3
  %12 = load ptr, ptr %4, align 8, !tbaa !7
  %13 = icmp eq ptr %12, null
  br i1 %13, label %14, label %15

14:                                               ; preds = %11
  br label %27

15:                                               ; preds = %11
  %16 = load ptr, ptr %5, align 8, !tbaa !7
  %17 = load ptr, ptr %4, align 8, !tbaa !7
  %18 = getelementptr inbounds nuw %struct._lv_display_t, ptr %17, i32 0, i32 7
  store ptr %16, ptr %18, align 8, !tbaa !68
  %19 = load ptr, ptr %6, align 8, !tbaa !7
  %20 = load ptr, ptr %4, align 8, !tbaa !7
  %21 = getelementptr inbounds nuw %struct._lv_display_t, ptr %20, i32 0, i32 8
  store ptr %19, ptr %21, align 8, !tbaa !69
  %22 = load ptr, ptr %4, align 8, !tbaa !7
  %23 = getelementptr inbounds nuw %struct._lv_display_t, ptr %22, i32 0, i32 7
  %24 = load ptr, ptr %23, align 8, !tbaa !68
  %25 = load ptr, ptr %4, align 8, !tbaa !7
  %26 = getelementptr inbounds nuw %struct._lv_display_t, ptr %25, i32 0, i32 9
  store ptr %24, ptr %26, align 8, !tbaa !70
  br label %27

27:                                               ; preds = %15, %14
  ret void
}

; Function Attrs: nounwind uwtable
define i32 @lv_display_get_vertical_resolution(ptr noundef %0) #0 {
  %2 = alloca i32, align 4
  %3 = alloca ptr, align 8
  store ptr %0, ptr %3, align 8, !tbaa !7
  %4 = load ptr, ptr %3, align 8, !tbaa !7
  %5 = icmp eq ptr %4, null
  br i1 %5, label %6, label %8

6:                                                ; preds = %1
  %7 = call ptr @lv_display_get_default()
  store ptr %7, ptr %3, align 8, !tbaa !7
  br label %8

8:                                                ; preds = %6, %1
  %9 = load ptr, ptr %3, align 8, !tbaa !7
  %10 = icmp eq ptr %9, null
  br i1 %10, label %11, label %12

11:                                               ; preds = %8
  store i32 0, ptr %2, align 4
  br label %26

12:                                               ; preds = %8
  %13 = load ptr, ptr %3, align 8, !tbaa !7
  %14 = getelementptr inbounds nuw %struct._lv_display_t, ptr %13, i32 0, i32 40
  %15 = load i8, ptr %14, align 8
  %16 = and i8 %15, 7
  %17 = zext i8 %16 to i32
  switch i32 %17, label %22 [
    i32 1, label %18
    i32 3, label %18
  ]

18:                                               ; preds = %12, %12
  %19 = load ptr, ptr %3, align 8, !tbaa !7
  %20 = getelementptr inbounds nuw %struct._lv_display_t, ptr %19, i32 0, i32 0
  %21 = load i32, ptr %20, align 8, !tbaa !9
  store i32 %21, ptr %2, align 4
  br label %26

22:                                               ; preds = %12
  %23 = load ptr, ptr %3, align 8, !tbaa !7
  %24 = getelementptr inbounds nuw %struct._lv_display_t, ptr %23, i32 0, i32 1
  %25 = load i32, ptr %24, align 4, !tbaa !18
  store i32 %25, ptr %2, align 4
  br label %26

26:                                               ; preds = %22, %18, %11
  %27 = load i32, ptr %2, align 4
  ret i32 %27
}

; Function Attrs: nounwind uwtable
define i32 @lv_display_get_horizontal_resolution(ptr noundef %0) #0 {
  %2 = alloca i32, align 4
  %3 = alloca ptr, align 8
  store ptr %0, ptr %3, align 8, !tbaa !7
  %4 = load ptr, ptr %3, align 8, !tbaa !7
  %5 = icmp eq ptr %4, null
  br i1 %5, label %6, label %8

6:                                                ; preds = %1
  %7 = call ptr @lv_display_get_default()
  store ptr %7, ptr %3, align 8, !tbaa !7
  br label %8

8:                                                ; preds = %6, %1
  %9 = load ptr, ptr %3, align 8, !tbaa !7
  %10 = icmp eq ptr %9, null
  br i1 %10, label %11, label %12

11:                                               ; preds = %8
  store i32 0, ptr %2, align 4
  br label %26

12:                                               ; preds = %8
  %13 = load ptr, ptr %3, align 8, !tbaa !7
  %14 = getelementptr inbounds nuw %struct._lv_display_t, ptr %13, i32 0, i32 40
  %15 = load i8, ptr %14, align 8
  %16 = and i8 %15, 7
  %17 = zext i8 %16 to i32
  switch i32 %17, label %22 [
    i32 1, label %18
    i32 3, label %18
  ]

18:                                               ; preds = %12, %12
  %19 = load ptr, ptr %3, align 8, !tbaa !7
  %20 = getelementptr inbounds nuw %struct._lv_display_t, ptr %19, i32 0, i32 1
  %21 = load i32, ptr %20, align 4, !tbaa !18
  store i32 %21, ptr %2, align 4
  br label %26

22:                                               ; preds = %12
  %23 = load ptr, ptr %3, align 8, !tbaa !7
  %24 = getelementptr inbounds nuw %struct._lv_display_t, ptr %23, i32 0, i32 0
  %25 = load i32, ptr %24, align 8, !tbaa !9
  store i32 %25, ptr %2, align 4
  br label %26

26:                                               ; preds = %22, %18, %11
  %27 = load i32, ptr %2, align 4
  ret i32 %27
}

; Function Attrs: nounwind uwtable
define i32 @lv_display_get_color_format(ptr noundef %0) #0 {
  %2 = alloca i32, align 4
  %3 = alloca ptr, align 8
  store ptr %0, ptr %3, align 8, !tbaa !7
  %4 = load ptr, ptr %3, align 8, !tbaa !7
  %5 = icmp eq ptr %4, null
  br i1 %5, label %6, label %8

6:                                                ; preds = %1
  %7 = call ptr @lv_display_get_default()
  store ptr %7, ptr %3, align 8, !tbaa !7
  br label %8

8:                                                ; preds = %6, %1
  %9 = load ptr, ptr %3, align 8, !tbaa !7
  %10 = icmp eq ptr %9, null
  br i1 %10, label %11, label %12

11:                                               ; preds = %8
  store i32 0, ptr %2, align 4
  br label %16

12:                                               ; preds = %8
  %13 = load ptr, ptr %3, align 8, !tbaa !7
  %14 = getelementptr inbounds nuw %struct._lv_display_t, ptr %13, i32 0, i32 17
  %15 = load i32, ptr %14, align 4, !tbaa !24
  store i32 %15, ptr %2, align 4
  br label %16

16:                                               ; preds = %12, %11
  %17 = load i32, ptr %2, align 4
  ret i32 %17
}

; Function Attrs: nounwind uwtable
define void @lv_display_set_buffers_with_stride(ptr noundef %0, ptr noundef %1, ptr noundef %2, i32 noundef %3, i32 noundef %4, i32 noundef %5) #0 {
  %7 = alloca ptr, align 8
  %8 = alloca ptr, align 8
  %9 = alloca ptr, align 8
  %10 = alloca i32, align 4
  %11 = alloca i32, align 4
  %12 = alloca i32, align 4
  %13 = alloca i32, align 4
  %14 = alloca i32, align 4
  %15 = alloca i32, align 4
  store ptr %0, ptr %7, align 8, !tbaa !7
  store ptr %1, ptr %8, align 8, !tbaa !7
  store ptr %2, ptr %9, align 8, !tbaa !7
  store i32 %3, ptr %10, align 4, !tbaa !3
  store i32 %4, ptr %11, align 4, !tbaa !3
  store i32 %5, ptr %12, align 4, !tbaa !3
  br label %16

16:                                               ; preds = %6
  %17 = load ptr, ptr %8, align 8, !tbaa !7
  %18 = icmp ne ptr %17, null
  br i1 %18, label %23, label %19

19:                                               ; preds = %16
  br label %20

20:                                               ; preds = %19
  br label %21

21:                                               ; preds = %20
  br label %22

22:                                               ; preds = %21, %22
  br label %22

23:                                               ; preds = %16
  br label %24

24:                                               ; preds = %23
  call void @llvm.lifetime.start.p0(i64 4, ptr %13) #5
  %25 = load ptr, ptr %7, align 8, !tbaa !7
  %26 = call i32 @lv_display_get_color_format(ptr noundef %25)
  store i32 %26, ptr %13, align 4, !tbaa !3
  call void @llvm.lifetime.start.p0(i64 4, ptr %14) #5
  %27 = load ptr, ptr %7, align 8, !tbaa !7
  %28 = call i32 @lv_display_get_horizontal_resolution(ptr noundef %27)
  store i32 %28, ptr %14, align 4, !tbaa !3
  call void @llvm.lifetime.start.p0(i64 4, ptr %15) #5
  %29 = load ptr, ptr %7, align 8, !tbaa !7
  %30 = call i32 @lv_display_get_vertical_resolution(ptr noundef %29)
  store i32 %30, ptr %15, align 4, !tbaa !3
  br label %31

31:                                               ; preds = %24
  %32 = load i32, ptr %14, align 4, !tbaa !3
  %33 = icmp ne i32 %32, 0
  br i1 %33, label %34, label %37

34:                                               ; preds = %31
  %35 = load i32, ptr %15, align 4, !tbaa !3
  %36 = icmp ne i32 %35, 0
  br i1 %36, label %43, label %37

37:                                               ; preds = %34, %31
  br label %38

38:                                               ; preds = %37
  br label %39

39:                                               ; preds = %38
  br label %40

40:                                               ; preds = %39
  br label %41

41:                                               ; preds = %42, %40
  br label %42

42:                                               ; preds = %41
  br label %41

43:                                               ; preds = %34
  br label %44

44:                                               ; preds = %43
  br label %45

45:                                               ; preds = %44
  %46 = load i32, ptr %12, align 4, !tbaa !3
  %47 = icmp eq i32 %46, 0
  br i1 %47, label %48, label %64

48:                                               ; preds = %45
  %49 = load i32, ptr %10, align 4, !tbaa !3
  %50 = load i32, ptr %11, align 4, !tbaa !3
  %51 = udiv i32 %49, %50
  store i32 %51, ptr %15, align 4, !tbaa !3
  br label %52

52:                                               ; preds = %48
  %53 = load i32, ptr %15, align 4, !tbaa !3
  %54 = icmp ne i32 %53, 0
  br i1 %54, label %61, label %55

55:                                               ; preds = %52
  br label %56

56:                                               ; preds = %55
  br label %57

57:                                               ; preds = %56
  br label %58

58:                                               ; preds = %57
  br label %59

59:                                               ; preds = %60, %58
  br label %60

60:                                               ; preds = %59
  br label %59

61:                                               ; preds = %52
  br label %62

62:                                               ; preds = %61
  br label %63

63:                                               ; preds = %62
  br label %80

64:                                               ; preds = %45
  br label %65

65:                                               ; preds = %64
  %66 = load i32, ptr %11, align 4, !tbaa !3
  %67 = load i32, ptr %15, align 4, !tbaa !3
  %68 = mul i32 %66, %67
  %69 = load i32, ptr %10, align 4, !tbaa !3
  %70 = icmp ule i32 %68, %69
  br i1 %70, label %77, label %71

71:                                               ; preds = %65
  br label %72

72:                                               ; preds = %71
  br label %73

73:                                               ; preds = %72
  br label %74

74:                                               ; preds = %73
  br label %75

75:                                               ; preds = %76, %74
  br label %76

76:                                               ; preds = %75
  br label %75

77:                                               ; preds = %65
  br label %78

78:                                               ; preds = %77
  br label %79

79:                                               ; preds = %78
  br label %80

80:                                               ; preds = %79, %63
  %81 = load ptr, ptr %7, align 8, !tbaa !7
  %82 = getelementptr inbounds nuw %struct._lv_display_t, ptr %81, i32 0, i32 23
  %83 = load i32, ptr %14, align 4, !tbaa !3
  %84 = load i32, ptr %15, align 4, !tbaa !3
  %85 = load i32, ptr %13, align 4, !tbaa !3
  %86 = load i32, ptr %11, align 4, !tbaa !3
  %87 = load ptr, ptr %8, align 8, !tbaa !7
  %88 = load i32, ptr %10, align 4, !tbaa !3
  %89 = call i32 @lv_draw_buf_init(ptr noundef %82, i32 noundef %83, i32 noundef %84, i32 noundef %85, i32 noundef %86, ptr noundef %87, i32 noundef %88)
  %90 = load ptr, ptr %7, align 8, !tbaa !7
  %91 = getelementptr inbounds nuw %struct._lv_display_t, ptr %90, i32 0, i32 24
  %92 = load i32, ptr %14, align 4, !tbaa !3
  %93 = load i32, ptr %15, align 4, !tbaa !3
  %94 = load i32, ptr %13, align 4, !tbaa !3
  %95 = load i32, ptr %11, align 4, !tbaa !3
  %96 = load ptr, ptr %9, align 8, !tbaa !7
  %97 = load i32, ptr %10, align 4, !tbaa !3
  %98 = call i32 @lv_draw_buf_init(ptr noundef %91, i32 noundef %92, i32 noundef %93, i32 noundef %94, i32 noundef %95, ptr noundef %96, i32 noundef %97)
  %99 = load ptr, ptr %7, align 8, !tbaa !7
  %100 = load ptr, ptr %7, align 8, !tbaa !7
  %101 = getelementptr inbounds nuw %struct._lv_display_t, ptr %100, i32 0, i32 23
  %102 = load ptr, ptr %9, align 8, !tbaa !7
  %103 = icmp ne ptr %102, null
  br i1 %103, label %104, label %107

104:                                              ; preds = %80
  %105 = load ptr, ptr %7, align 8, !tbaa !7
  %106 = getelementptr inbounds nuw %struct._lv_display_t, ptr %105, i32 0, i32 24
  br label %108

107:                                              ; preds = %80
  br label %108

108:                                              ; preds = %107, %104
  %109 = phi ptr [ %106, %104 ], [ null, %107 ]
  call void @lv_display_set_draw_buffers(ptr noundef %99, ptr noundef %101, ptr noundef %109)
  %110 = load ptr, ptr %7, align 8, !tbaa !7
  %111 = load i32, ptr %12, align 4, !tbaa !3
  call void @lv_display_set_render_mode(ptr noundef %110, i32 noundef %111)
  call void @llvm.lifetime.end.p0(i64 4, ptr %15) #5
  call void @llvm.lifetime.end.p0(i64 4, ptr %14) #5
  call void @llvm.lifetime.end.p0(i64 4, ptr %13) #5
  ret void
}