; Function Attrs: nounwind uwtable
define void @lv_display_set_buffers_with_stride(ptr noundef %0, ptr noundef %1, ptr noundef %2, i32 noundef %3, i32 noundef %4, i32 noundef %5) local_unnamed_addr #0 {
  %.not = icmp eq ptr %1, null
  br i1 %.not, label %.preheader, label %7

.preheader:                                       ; preds = %6, %.preheader
  br label %.preheader

7:                                                ; preds = %6
  %8 = icmp eq ptr %0, null
  br i1 %8, label %9, label %.thread.i40

9:                                                ; preds = %7
  %10 = load ptr, ptr getelementptr inbounds nuw (i8, ptr @lv_global, i64 40), align 8, !tbaa !33
  %11 = icmp eq ptr %10, null
  br i1 %11, label %.preheader71.preheader, label %.thread.i40

.thread.i40:                                      ; preds = %9, %7
  %.08.i = phi ptr [ %0, %7 ], [ %10, %9 ]
  %.03.i48.in = getelementptr inbounds nuw i8, ptr %.08.i, i64 92
  %.03.i48 = load i32, ptr %.03.i48.in, align 4, !tbaa !22
  %12 = getelementptr inbounds nuw i8, ptr %.08.i, i64 888
  %13 = load i8, ptr %12, align 8
  %14 = and i8 %13, 7
  switch i8 %14, label %lv_display_get_horizontal_resolution.exit [
    i8 1, label %15
    i8 3, label %15
  ]

15:                                               ; preds = %.thread.i40, %.thread.i40
  %16 = getelementptr inbounds nuw i8, ptr %.08.i, i64 4
  br label %lv_display_get_horizontal_resolution.exit

lv_display_get_horizontal_resolution.exit:        ; preds = %.thread.i40, %15
  %.05.i.in = phi ptr [ %16, %15 ], [ %.08.i, %.thread.i40 ]
  %.05.i = load i32, ptr %.05.i.in, align 4, !tbaa !60
  br i1 %8, label %17, label %.thread.i41

17:                                               ; preds = %lv_display_get_horizontal_resolution.exit
  %.pr = load ptr, ptr getelementptr inbounds nuw (i8, ptr @lv_global, i64 40), align 8, !tbaa !33
  %18 = icmp eq ptr %.pr, null
  br i1 %18, label %.preheader71.preheader, label %.thread.i41

.thread.i41:                                      ; preds = %17, %lv_display_get_horizontal_resolution.exit
  %.08.i42 = phi ptr [ %.pr, %17 ], [ %0, %lv_display_get_horizontal_resolution.exit ]
  %19 = getelementptr inbounds nuw i8, ptr %.08.i42, i64 888
  %20 = load i8, ptr %19, align 8
  %21 = and i8 %20, 7
  switch i8 %21, label %22 [
    i8 1, label %lv_display_get_vertical_resolution.exit
    i8 3, label %lv_display_get_vertical_resolution.exit
  ]

22:                                               ; preds = %.thread.i41
  %23 = getelementptr inbounds nuw i8, ptr %.08.i42, i64 4
  br label %lv_display_get_vertical_resolution.exit

lv_display_get_vertical_resolution.exit:          ; preds = %.thread.i41, %.thread.i41, %22
  %.05.i43.in = phi ptr [ %23, %22 ], [ %.08.i42, %.thread.i41 ], [ %.08.i42, %.thread.i41 ]
  %.05.i43 = load i32, ptr %.05.i43.in, align 4, !tbaa !60
  %24 = icmp ne i32 %.05.i, 0
  %25 = icmp ne i32 %.05.i43, 0
  %or.cond = select i1 %24, i1 %25, i1 false
  br i1 %or.cond, label %26, label %.preheader71.preheader

.preheader71.preheader:                           ; preds = %17, %9, %lv_display_get_vertical_resolution.exit
  br label %.preheader71

.preheader71:                                     ; preds = %.preheader71.preheader, %.preheader71
  br label %.preheader71

26:                                               ; preds = %lv_display_get_vertical_resolution.exit
  %27 = icmp eq i32 %5, 0
  br i1 %27, label %28, label %30

28:                                               ; preds = %26
  %29 = udiv i32 %3, %4
  %.not38 = icmp ugt i32 %4, %3
  br i1 %.not38, label %.preheader69, label %32

.preheader69:                                     ; preds = %28, %.preheader69
  br label %.preheader69

30:                                               ; preds = %26
  %31 = mul i32 %.05.i43, %4
  %.not37 = icmp ugt i32 %31, %3
  br i1 %.not37, label %.preheader70, label %32

.preheader70:                                     ; preds = %30, %.preheader70
  br label %.preheader70

32:                                               ; preds = %30, %28
  %.0 = phi i32 [ %29, %28 ], [ %.05.i43, %30 ]
  %33 = getelementptr inbounds nuw i8, ptr %0, i64 672
  %34 = tail call i32 @lv_draw_buf_init(ptr noundef nonnull %33, i32 noundef %.05.i, i32 noundef %.0, i32 noundef %.03.i48, i32 noundef %4, ptr noundef nonnull %1, i32 noundef %3) #13
  %35 = getelementptr inbounds nuw i8, ptr %0, i64 712
  %36 = tail call i32 @lv_draw_buf_init(ptr noundef nonnull %35, i32 noundef %.05.i, i32 noundef %.0, i32 noundef %.03.i48, i32 noundef %4, ptr noundef %2, i32 noundef %3) #13
  %.not39 = icmp eq ptr %2, null
  %37 = select i1 %.not39, ptr null, ptr %35
  br i1 %8, label %38, label %.thread.i45

38:                                               ; preds = %32
  %39 = load ptr, ptr getelementptr inbounds nuw (i8, ptr @lv_global, i64 40), align 8, !tbaa !33
  %40 = icmp eq ptr %39, null
  br i1 %40, label %lv_display_set_render_mode.exit, label %.thread.i45

.thread.i45:                                      ; preds = %38, %32
  %.sink78 = phi ptr [ %0, %32 ], [ %39, %38 ]
  %41 = getelementptr inbounds nuw i8, ptr %.sink78, i64 32
  store ptr %33, ptr %41, align 8, !tbaa !63
  %42 = getelementptr inbounds nuw i8, ptr %.sink78, i64 40
  store ptr %37, ptr %42, align 8, !tbaa !64
  %43 = getelementptr inbounds nuw i8, ptr %.sink78, i64 48
  store ptr %33, ptr %43, align 8, !tbaa !65
  %44 = getelementptr inbounds nuw i8, ptr %.sink78, i64 84
  store i32 %5, ptr %44, align 4, !tbaa !66
  br label %lv_display_set_render_mode.exit

lv_display_set_render_mode.exit:                  ; preds = %38, %.thread.i45
  ret void
}